target datalayout = "e-m:e-p270:32:32-p271:32:32-p272:64:64-i64:64-i128:128-f80:128-n8:16:32:64-S128"
target triple = "x86_64-pc-linux-gnu"

%"class.std::basic_string_view" = type { i64, ptr }
%"struct.toml::v3::source_position" = type { i32, i32 }
%"struct.toml::v3::source_region" = type { %"struct.toml::v3::source_position", %"struct.toml::v3::source_position", %"class.std::shared_ptr" }
%"class.std::shared_ptr" = type { %"class.std::__shared_ptr" }
%"class.std::__shared_ptr" = type { ptr, %"class.std::__shared_count" }
%"class.std::__shared_count" = type { ptr }
%"struct.toml::v3::impl::formatter_config" = type { i64, %"class.std::basic_string_view" }
%"class.toml::v3::node" = type { ptr, %"struct.toml::v3::source_region" }
%"class.toml::v3::table" = type <{ %"class.toml::v3::node", %"class.std::map", i8, [7 x i8] }>
%"class.std::map" = type { %"class.std::_Rb_tree" }
%"class.std::_Rb_tree" = type { %"struct.std::_Rb_tree<toml::v3::key, std::pair<const toml::v3::key, std::unique_ptr<toml::v3::node>>, std::_Select1st<std::pair<const toml::v3::key, std::unique_ptr<toml::v3::node>>>, std::less<void>>::_Rb_tree_impl" }
%"struct.std::_Rb_tree<toml::v3::key, std::pair<const toml::v3::key, std::unique_ptr<toml::v3::node>>, std::_Select1st<std::pair<const toml::v3::key, std::unique_ptr<toml::v3::node>>>, std::less<void>>::_Rb_tree_impl" = type { [8 x i8], %"struct.std::_Rb_tree_header" }
%"struct.std::_Rb_tree_header" = type { %"struct.std::_Rb_tree_node_base", i64 }
%"struct.std::_Rb_tree_node_base" = type { i32, ptr, ptr, ptr }
%"class.toml::v3::impl::formatter" = type <{ ptr, ptr, %"struct.toml::v3::impl::formatter_config", i64, i64, ptr, i32, i8, [3 x i8] }>

; Function Attrs: mustprogress nounwind uwtable
define linkonce_odr void @_ZN4toml2v34impl9formatter15decrease_indentEv(ptr noundef nonnull align 8 dereferenceable(69) %0) #2 comdat align 2 {
  %2 = alloca ptr, align 8
  store ptr %0, ptr %2, align 8, !tbaa !374
  %3 = load ptr, ptr %2, align 8
  %4 = getelementptr inbounds nuw %"class.toml::v3::impl::formatter", ptr %3, i32 0, i32 6
  %5 = load i32, ptr %4, align 8, !tbaa !388
  %6 = add nsw i32 %5, -1
  store i32 %6, ptr %4, align 8, !tbaa !388
  ret void
}

; Function Attrs: alwaysinline mustprogress nounwind willreturn memory(read) uwtable
define linkonce_odr noundef zeroext i1 @_ZNK4toml2v35table9is_inlineEv(ptr noundef nonnull align 8 dereferenceable(89) %0) #5 comdat align 2 {
  %2 = alloca ptr, align 8
  store ptr %0, ptr %2, align 8, !tbaa !132
  %3 = load ptr, ptr %2, align 8
  %4 = getelementptr inbounds nuw %"class.toml::v3::table", ptr %3, i32 0, i32 2
  %5 = load i8, ptr %4, align 8, !tbaa !242, !range !69, !noundef !70
  %6 = trunc i8 %5 to i1
  ret i1 %6
}

; Function Attrs: alwaysinline mustprogress nounwind willreturn memory(read) uwtable
define linkonce_odr noundef nonnull align 8 dereferenceable(40) ptr @_ZNK4toml2v34impl9formatter6sourceEv(ptr noundef nonnull align 8 dereferenceable(69) %0) #5 comdat align 2 {
  %2 = alloca ptr, align 8
  store ptr %0, ptr %2, align 8, !tbaa !374
  %3 = load ptr, ptr %2, align 8
  %4 = getelementptr inbounds nuw %"class.toml::v3::impl::formatter", ptr %3, i32 0, i32 0
  %5 = load ptr, ptr %4, align 8, !tbaa !379
  ret ptr %5
}

; Function Attrs: mustprogress nounwind willreturn memory(none) uwtable
define noundef zeroext i1 @_ZN4toml2v34impl9formatter24dump_failed_parse_resultEv(ptr noundef nonnull align 8 dereferenceable(69) %0) #21 align 2 {
  %2 = alloca ptr, align 8
  store ptr %0, ptr %2, align 8, !tbaa !374
  ret i1 false
}

; Function Attrs: mustprogress uwtable
define void @_ZN4toml2v314toml_formatter5printEv(ptr noundef nonnull align 8 dereferenceable(97) %0) #0 align 2 {
  %2 = alloca ptr, align 8
  %3 = alloca i8, align 1
  %4 = alloca ptr, align 8
  %5 = alloca i32, align 4
  store ptr %0, ptr %2, align 8, !tbaa !114
  %6 = load ptr, ptr %2, align 8
  %7 = call noundef zeroext i1 @_ZN4toml2v34impl9formatter24dump_failed_parse_resultEv(ptr noundef nonnull align 8 dereferenceable(69) %6) #38
  br i1 %7, label %8, label %9

8:                                                ; preds = %1
  br label %33

9:                                                ; preds = %1
  call void @llvm.lifetime.start.p0(i64 1, ptr %3) #36
  %10 = call noundef nonnull align 8 dereferenceable(40) ptr @_ZNK4toml2v34impl9formatter6sourceEv(ptr noundef nonnull align 8 dereferenceable(69) %6) #37
  %11 = load ptr, ptr %10, align 8, !tbaa !73
  %12 = getelementptr inbounds ptr, ptr %11, i64 5
  %13 = load ptr, ptr %12, align 8
  %14 = call noundef zeroext i8 %13(ptr noundef nonnull align 8 dereferenceable(40) %10) #37
  store i8 %14, ptr %3, align 1, !tbaa !220
  %15 = load i8, ptr %3, align 1, !tbaa !220
  switch i8 %15, label %27 [
    i8 1, label %16
    i8 2, label %25
  ]

16:                                               ; preds = %9
  call void @llvm.lifetime.start.p0(i64 8, ptr %4) #36
  %17 = call noundef nonnull align 8 dereferenceable(40) ptr @_ZNK4toml2v34impl9formatter6sourceEv(ptr noundef nonnull align 8 dereferenceable(69) %6) #37
  store ptr %17, ptr %4, align 8, !tbaa !132
  %18 = load ptr, ptr %4, align 8, !tbaa !132
  %19 = call noundef zeroext i1 @_ZNK4toml2v35table9is_inlineEv(ptr noundef nonnull align 8 dereferenceable(89) %18) #37
  br i1 %19, label %20, label %22

20:                                               ; preds = %16
  %21 = load ptr, ptr %4, align 8, !tbaa !132
  call void @_ZN4toml2v314toml_formatter12print_inlineERKNS0_5tableE(ptr noundef nonnull align 8 dereferenceable(97) %6, ptr noundef nonnull align 8 dereferenceable(89) %21)
  br label %24

22:                                               ; preds = %16
  call void @_ZN4toml2v34impl9formatter15decrease_indentEv(ptr noundef nonnull align 8 dereferenceable(69) %6) #36
  %23 = load ptr, ptr %4, align 8, !tbaa !132
  call void @_ZN4toml2v314toml_formatter5printERKNS0_5tableE(ptr noundef nonnull align 8 dereferenceable(97) %6, ptr noundef nonnull align 8 dereferenceable(89) %23)
  br label %24

24:                                               ; preds = %22, %20
  store i32 2, ptr %5, align 4
  call void @llvm.lifetime.end.p0(i64 8, ptr %4) #36
  br label %30

25:                                               ; preds = %9
  %26 = call noundef nonnull align 8 dereferenceable(40) ptr @_ZNK4toml2v34impl9formatter6sourceEv(ptr noundef nonnull align 8 dereferenceable(69) %6) #37
  call void @_ZN4toml2v314toml_formatter5printERKNS0_5arrayE(ptr noundef nonnull align 8 dereferenceable(97) %6, ptr noundef nonnull align 8 dereferenceable(64) %26)
  store i32 2, ptr %5, align 4
  br label %30

27:                                               ; preds = %9
  %28 = call noundef nonnull align 8 dereferenceable(40) ptr @_ZNK4toml2v34impl9formatter6sourceEv(ptr noundef nonnull align 8 dereferenceable(69) %6) #37
  %29 = load i8, ptr %3, align 1, !tbaa !220
  call void @_ZN4toml2v34impl9formatter11print_valueERKNS0_4nodeENS0_9node_typeE(ptr noundef nonnull align 8 dereferenceable(69) %6, ptr noundef nonnull align 8 dereferenceable(40) %28, i8 noundef zeroext %29)
  store i32 0, ptr %5, align 4
  br label %30

30:                                               ; preds = %27, %25, %24
  call void @llvm.lifetime.end.p0(i64 1, ptr %3) #36
  %31 = load i32, ptr %5, align 4
  switch i32 %31, label %34 [
    i32 0, label %32
    i32 2, label %33
  ]

32:                                               ; preds = %30
  br label %33

33:                                               ; preds = %8, %32, %30
  ret void

34:                                               ; preds = %30
  unreachable
}