; Function Attrs: mustprogress uwtable
define void @_ZN4toml2v314toml_formatter5printEv(ptr noundef nonnull align 8 dereferenceable(97) %0) local_unnamed_addr #0 align 2 {
  %2 = load ptr, ptr %0, align 8, !tbaa !105
  %3 = load ptr, ptr %2, align 8, !tbaa !44
  %4 = getelementptr inbounds nuw i8, ptr %3, i64 40
  %5 = load ptr, ptr %4, align 8
  %6 = tail call noundef zeroext i8 %5(ptr noundef nonnull align 8 dereferenceable(40) %2) #52
  switch i8 %6, label %17 [
    i8 1, label %7
    i8 2, label %16
  ]

7:                                                ; preds = %1
  %8 = getelementptr inbounds nuw i8, ptr %2, i64 88
  %9 = load i8, ptr %8, align 8, !tbaa !122, !range !95, !noundef !96
  %10 = trunc nuw i8 %9 to i1
  br i1 %10, label %11, label %12

11:                                               ; preds = %7
  tail call void @_ZN4toml2v314toml_formatter12print_inlineERKNS0_5tableE(ptr noundef nonnull align 8 dereferenceable(97) %0, ptr noundef nonnull align 8 dereferenceable(89) %2)
  br label %18

12:                                               ; preds = %7
  %13 = getelementptr inbounds nuw i8, ptr %0, i64 64
  %14 = load i32, ptr %13, align 8, !tbaa !119
  %15 = add nsw i32 %14, -1
  store i32 %15, ptr %13, align 8, !tbaa !119
  tail call void @_ZN4toml2v314toml_formatter5printERKNS0_5tableE(ptr noundef nonnull align 8 dereferenceable(97) %0, ptr noundef nonnull align 8 dereferenceable(89) %2)
  br label %18

16:                                               ; preds = %1
  tail call void @_ZN4toml2v314toml_formatter5printERKNS0_5arrayE(ptr noundef nonnull align 8 dereferenceable(97) %0, ptr noundef nonnull align 8 dereferenceable(64) %2)
  br label %18

17:                                               ; preds = %1
  tail call void @_ZN4toml2v34impl9formatter11print_valueERKNS0_4nodeENS0_9node_typeE(ptr noundef nonnull align 8 dereferenceable(69) %0, ptr noundef nonnull align 8 dereferenceable(40) %2, i8 noundef zeroext %6)
  br label %18

18:                                               ; preds = %16, %17, %12, %11
  ret void
}